target datalayout = "e-m:e-p270:32:32-p271:32:32-p272:64:64-i64:64-i128:128-f80:128-n8:16:32:64-S128"
target triple = "x86_64-pc-linux-gnu"

%"class.google::protobuf::io::Tokenizer" = type { %"struct.google::protobuf::io::Tokenizer::Token", %"struct.google::protobuf::io::Tokenizer::Token", ptr, ptr, i8, ptr, i32, i32, i8, i32, i32, ptr, i32, i8, i32, i8, i8, i8, i8 }
%"struct.google::protobuf::io::Tokenizer::Token" = type <{ i32, [4 x i8], %"class.std::__cxx11::basic_string", i32, i32, i32, [4 x i8] }>
%"class.std::__cxx11::basic_string" = type { %"struct.std::__cxx11::basic_string<char>::_Alloc_hider", i64, %union.anon }
%"struct.std::__cxx11::basic_string<char>::_Alloc_hider" = type { ptr }
%union.anon = type { i64, [8 x i8] }

@.str.30 = private unnamed_addr constant [21 x i8] c"basic_string::append\00", align 1

; Function Attrs: mustprogress nounwind uwtable
define linkonce_odr hidden noundef i64 @_ZNKSt15__new_allocatorIcE11_M_max_sizeEv(ptr noundef nonnull align 1 dereferenceable(1) %0) #4 comdat align 2 {
  %2 = alloca ptr, align 8
  store ptr %0, ptr %2, align 8, !tbaa !61
  ret i64 9223372036854775807
}

; Function Attrs: mustprogress nounwind uwtable
define linkonce_odr hidden noundef i64 @_ZNKSt15__new_allocatorIcE8max_sizeEv(ptr noundef nonnull align 1 dereferenceable(1) %0) #4 comdat align 2 {
  %2 = alloca ptr, align 8
  store ptr %0, ptr %2, align 8, !tbaa !61
  %3 = load ptr, ptr %2, align 8
  %4 = call noundef i64 @_ZNKSt15__new_allocatorIcE11_M_max_sizeEv(ptr noundef nonnull align 1 dereferenceable(1) %3) #3
  ret i64 %4
}

; Function Attrs: mustprogress nounwind uwtable
define linkonce_odr hidden noundef i64 @_ZNSt16allocator_traitsISaIcEE8max_sizeERKS0_(ptr noundef nonnull align 1 dereferenceable(1) %0) #4 comdat align 2 {
  %2 = alloca ptr, align 8
  store ptr %0, ptr %2, align 8, !tbaa !59
  %3 = load ptr, ptr %2, align 8, !tbaa !59
  %4 = call noundef i64 @_ZNKSt15__new_allocatorIcE8max_sizeEv(ptr noundef nonnull align 1 dereferenceable(1) %3) #3
  ret i64 %4
}

; Function Attrs: mustprogress nounwind uwtable
define available_externally noundef nonnull align 1 dereferenceable(1) ptr @_ZNKSt7__cxx1112basic_stringIcSt11char_traitsIcESaIcEE16_M_get_allocatorEv(ptr noundef nonnull align 8 dereferenceable(32) %0) #4 align 2 {
  %2 = alloca ptr, align 8
  store ptr %0, ptr %2, align 8, !tbaa !55
  %3 = load ptr, ptr %2, align 8
  %4 = getelementptr inbounds nuw %"class.std::__cxx11::basic_string", ptr %3, i32 0, i32 0
  ret ptr %4
}

; Function Attrs: mustprogress nounwind uwtable
define available_externally noundef i64 @_ZNKSt7__cxx1112basic_stringIcSt11char_traitsIcESaIcEE4sizeEv(ptr noundef nonnull align 8 dereferenceable(32) %0) #4 align 2 {
  %2 = alloca ptr, align 8
  store ptr %0, ptr %2, align 8, !tbaa !55
  %3 = load ptr, ptr %2, align 8
  %4 = getelementptr inbounds nuw %"class.std::__cxx11::basic_string", ptr %3, i32 0, i32 1
  %5 = load i64, ptr %4, align 8, !tbaa !72
  ret i64 %5
}

; Function Attrs: mustprogress nounwind uwtable
define available_externally noundef i64 @_ZNKSt7__cxx1112basic_stringIcSt11char_traitsIcESaIcEE8max_sizeEv(ptr noundef nonnull align 8 dereferenceable(32) %0) #4 align 2 {
  %2 = alloca ptr, align 8
  store ptr %0, ptr %2, align 8, !tbaa !55
  %3 = load ptr, ptr %2, align 8
  %4 = call noundef nonnull align 1 dereferenceable(1) ptr @_ZNKSt7__cxx1112basic_stringIcSt11char_traitsIcESaIcEE16_M_get_allocatorEv(ptr noundef nonnull align 8 dereferenceable(32) %3)
  %5 = call noundef i64 @_ZNSt16allocator_traitsISaIcEE8max_sizeERKS0_(ptr noundef nonnull align 1 dereferenceable(1) %4) #3
  %6 = sub i64 %5, 1
  %7 = udiv i64 %6, 2
  ret i64 %7
}

; Function Attrs: mustprogress uwtable
define available_externally void @_ZNKSt7__cxx1112basic_stringIcSt11char_traitsIcESaIcEE15_M_check_lengthEmmPKc(ptr noundef nonnull align 8 dereferenceable(32) %0, i64 noundef %1, i64 noundef %2, ptr noundef %3) #6 align 2 {
  %5 = alloca ptr, align 8
  %6 = alloca i64, align 8
  %7 = alloca i64, align 8
  %8 = alloca ptr, align 8
  store ptr %0, ptr %5, align 8, !tbaa !55
  store i64 %1, ptr %6, align 8, !tbaa !57
  store i64 %2, ptr %7, align 8, !tbaa !57
  store ptr %3, ptr %8, align 8, !tbaa !56
  %9 = load ptr, ptr %5, align 8
  %10 = call noundef i64 @_ZNKSt7__cxx1112basic_stringIcSt11char_traitsIcESaIcEE8max_sizeEv(ptr noundef nonnull align 8 dereferenceable(32) %9) #3
  %11 = call noundef i64 @_ZNKSt7__cxx1112basic_stringIcSt11char_traitsIcESaIcEE4sizeEv(ptr noundef nonnull align 8 dereferenceable(32) %9) #3
  %12 = load i64, ptr %6, align 8, !tbaa !57
  %13 = sub i64 %11, %12
  %14 = sub i64 %10, %13
  %15 = load i64, ptr %7, align 8, !tbaa !57
  %16 = icmp ult i64 %14, %15
  br i1 %16, label %17, label %19

17:                                               ; preds = %4
  %18 = load ptr, ptr %8, align 8, !tbaa !56
  call void @_ZSt20__throw_length_errorPKc(ptr noundef %18) #18
  unreachable

19:                                               ; preds = %4
  ret void
}

; Function Attrs: mustprogress uwtable
define available_externally noundef nonnull align 8 dereferenceable(32) ptr @_ZNSt7__cxx1112basic_stringIcSt11char_traitsIcESaIcEE6appendEPKcm(ptr noundef nonnull align 8 dereferenceable(32) %0, ptr noundef %1, i64 noundef %2) #6 align 2 {
  %4 = alloca ptr, align 8
  %5 = alloca ptr, align 8
  %6 = alloca i64, align 8
  store ptr %0, ptr %4, align 8, !tbaa !55
  store ptr %1, ptr %5, align 8, !tbaa !56
  store i64 %2, ptr %6, align 8, !tbaa !57
  %7 = load ptr, ptr %4, align 8
  %8 = load i64, ptr %6, align 8, !tbaa !57
  call void @_ZNKSt7__cxx1112basic_stringIcSt11char_traitsIcESaIcEE15_M_check_lengthEmmPKc(ptr noundef nonnull align 8 dereferenceable(32) %7, i64 noundef 0, i64 noundef %8, ptr noundef @.str.30)
  %9 = load ptr, ptr %5, align 8, !tbaa !56
  %10 = load i64, ptr %6, align 8, !tbaa !57
  %11 = call noundef nonnull align 8 dereferenceable(32) ptr @_ZNSt7__cxx1112basic_stringIcSt11char_traitsIcESaIcEE9_M_appendEPKcm(ptr noundef nonnull align 8 dereferenceable(32) %7, ptr noundef %9, i64 noundef %10)
  ret ptr %11
}

; Function Attrs: mustprogress uwtable
define hidden void @_ZN6google8protobuf2io9Tokenizer7RefreshEv(ptr noundef nonnull align 8 dereferenceable(192) %0) #6 align 2 {
  %2 = alloca ptr, align 8
  %3 = alloca ptr, align 8
  %4 = alloca i32, align 4
  store ptr %0, ptr %2, align 8, !tbaa !8
  %5 = load ptr, ptr %2, align 8
  %6 = getelementptr inbounds nuw %"class.google::protobuf::io::Tokenizer", ptr %5, i32 0, i32 8
  %7 = load i8, ptr %6, align 8, !tbaa !28, !range !45, !noundef !46
  %8 = trunc i8 %7 to i1
  br i1 %8, label %9, label %11

9:                                                ; preds = %1
  %10 = getelementptr inbounds nuw %"class.google::protobuf::io::Tokenizer", ptr %5, i32 0, i32 4
  store i8 0, ptr %10, align 8, !tbaa !47
  br label %68

11:                                               ; preds = %1
  %12 = getelementptr inbounds nuw %"class.google::protobuf::io::Tokenizer", ptr %5, i32 0, i32 11
  %13 = load ptr, ptr %12, align 8, !tbaa !31
  %14 = icmp ne ptr %13, null
  br i1 %14, label %15, label %38

15:                                               ; preds = %11
  %16 = getelementptr inbounds nuw %"class.google::protobuf::io::Tokenizer", ptr %5, i32 0, i32 12
  %17 = load i32, ptr %16, align 8, !tbaa !32
  %18 = getelementptr inbounds nuw %"class.google::protobuf::io::Tokenizer", ptr %5, i32 0, i32 6
  %19 = load i32, ptr %18, align 8, !tbaa !26
  %20 = icmp slt i32 %17, %19
  br i1 %20, label %21, label %38

21:                                               ; preds = %15
  %22 = getelementptr inbounds nuw %"class.google::protobuf::io::Tokenizer", ptr %5, i32 0, i32 11
  %23 = load ptr, ptr %22, align 8, !tbaa !31
  %24 = getelementptr inbounds nuw %"class.google::protobuf::io::Tokenizer", ptr %5, i32 0, i32 5
  %25 = load ptr, ptr %24, align 8, !tbaa !25
  %26 = getelementptr inbounds nuw %"class.google::protobuf::io::Tokenizer", ptr %5, i32 0, i32 12
  %27 = load i32, ptr %26, align 8, !tbaa !32
  %28 = sext i32 %27 to i64
  %29 = getelementptr inbounds i8, ptr %25, i64 %28
  %30 = getelementptr inbounds nuw %"class.google::protobuf::io::Tokenizer", ptr %5, i32 0, i32 6
  %31 = load i32, ptr %30, align 8, !tbaa !26
  %32 = getelementptr inbounds nuw %"class.google::protobuf::io::Tokenizer", ptr %5, i32 0, i32 12
  %33 = load i32, ptr %32, align 8, !tbaa !32
  %34 = sub nsw i32 %31, %33
  %35 = sext i32 %34 to i64
  %36 = call noundef nonnull align 8 dereferenceable(32) ptr @_ZNSt7__cxx1112basic_stringIcSt11char_traitsIcESaIcEE6appendEPKcm(ptr noundef nonnull align 8 dereferenceable(32) %23, ptr noundef %29, i64 noundef %35)
  %37 = getelementptr inbounds nuw %"class.google::protobuf::io::Tokenizer", ptr %5, i32 0, i32 12
  store i32 0, ptr %37, align 8, !tbaa !32
  br label %38

38:                                               ; preds = %21, %15, %11
  call void @llvm.lifetime.start.p0(i64 8, ptr %3) #3
  store ptr null, ptr %3, align 8, !tbaa !48
  %39 = getelementptr inbounds nuw %"class.google::protobuf::io::Tokenizer", ptr %5, i32 0, i32 5
  store ptr null, ptr %39, align 8, !tbaa !25
  %40 = getelementptr inbounds nuw %"class.google::protobuf::io::Tokenizer", ptr %5, i32 0, i32 7
  store i32 0, ptr %40, align 4, !tbaa !27
  br label %41

41:                                               ; preds = %54, %38
  %42 = getelementptr inbounds nuw %"class.google::protobuf::io::Tokenizer", ptr %5, i32 0, i32 2
  %43 = load ptr, ptr %42, align 8, !tbaa !12
  %44 = getelementptr inbounds nuw %"class.google::protobuf::io::Tokenizer", ptr %5, i32 0, i32 6
  %45 = load ptr, ptr %43, align 8, !tbaa !49
  %46 = getelementptr inbounds ptr, ptr %45, i64 2
  %47 = load ptr, ptr %46, align 8
  %48 = call noundef zeroext i1 %47(ptr noundef nonnull align 8 dereferenceable(8) %43, ptr noundef %3, ptr noundef %44)
  br i1 %48, label %53, label %49

49:                                               ; preds = %41
  %50 = getelementptr inbounds nuw %"class.google::protobuf::io::Tokenizer", ptr %5, i32 0, i32 6
  store i32 0, ptr %50, align 8, !tbaa !26
  %51 = getelementptr inbounds nuw %"class.google::protobuf::io::Tokenizer", ptr %5, i32 0, i32 8
  store i8 1, ptr %51, align 8, !tbaa !28
  %52 = getelementptr inbounds nuw %"class.google::protobuf::io::Tokenizer", ptr %5, i32 0, i32 4
  store i8 0, ptr %52, align 8, !tbaa !47
  store i32 1, ptr %4, align 4
  br label %66

53:                                               ; preds = %41
  br label %54

54:                                               ; preds = %53
  %55 = getelementptr inbounds nuw %"class.google::protobuf::io::Tokenizer", ptr %5, i32 0, i32 6
  %56 = load i32, ptr %55, align 8, !tbaa !26
  %57 = icmp eq i32 %56, 0
  br i1 %57, label %41, label %58, !llvm.loop !51

58:                                               ; preds = %54
  %59 = load ptr, ptr %3, align 8, !tbaa !48
  %60 = getelementptr inbounds nuw %"class.google::protobuf::io::Tokenizer", ptr %5, i32 0, i32 5
  store ptr %59, ptr %60, align 8, !tbaa !25
  %61 = getelementptr inbounds nuw %"class.google::protobuf::io::Tokenizer", ptr %5, i32 0, i32 5
  %62 = load ptr, ptr %61, align 8, !tbaa !25
  %63 = getelementptr inbounds i8, ptr %62, i64 0
  %64 = load i8, ptr %63, align 1, !tbaa !53
  %65 = getelementptr inbounds nuw %"class.google::protobuf::io::Tokenizer", ptr %5, i32 0, i32 4
  store i8 %64, ptr %65, align 8, !tbaa !47
  store i32 0, ptr %4, align 4
  br label %66

66:                                               ; preds = %58, %49
  call void @llvm.lifetime.end.p0(i64 8, ptr %3) #3
  %67 = load i32, ptr %4, align 4
  switch i32 %67, label %69 [
    i32 0, label %68
    i32 1, label %68
  ]

68:                                               ; preds = %9, %66, %66
  ret void

69:                                               ; preds = %66
  unreachable
}