; Function Attrs: mustprogress uwtable
define hidden void @_ZN6google8protobuf2io9Tokenizer7RefreshEv(ptr noundef nonnull align 8 dereferenceable(192) %0) local_unnamed_addr #6 align 2 {
  %2 = alloca ptr, align 8
  %3 = getelementptr inbounds nuw i8, ptr %0, i64 152
  %4 = load i8, ptr %3, align 8, !tbaa !44, !range !49, !noundef !50
  %5 = trunc nuw i8 %4 to i1
  br i1 %5, label %6, label %8

6:                                                ; preds = %1
  %7 = getelementptr inbounds nuw i8, ptr %0, i64 128
  store i8 0, ptr %7, align 8, !tbaa !47
  br label %50

8:                                                ; preds = %1
  %9 = getelementptr inbounds nuw i8, ptr %0, i64 168
  %10 = load ptr, ptr %9, align 8, !tbaa !26
  %.not = icmp eq ptr %10, null
  br i1 %.not, label %30, label %11

11:                                               ; preds = %8
  %12 = getelementptr inbounds nuw i8, ptr %0, i64 176
  %13 = load i32, ptr %12, align 8, !tbaa !27
  %14 = getelementptr inbounds nuw i8, ptr %0, i64 144
  %15 = load i32, ptr %14, align 8, !tbaa !43
  %16 = icmp slt i32 %13, %15
  br i1 %16, label %17, label %30

17:                                               ; preds = %11
  %18 = sub nsw i32 %15, %13
  %19 = sext i32 %18 to i64
  %20 = getelementptr inbounds nuw i8, ptr %10, i64 8
  %21 = load i64, ptr %20, align 8, !tbaa !9
  %22 = sub i64 4611686018427387903, %21
  %23 = icmp ult i64 %22, %19
  br i1 %23, label %24, label %_ZNSt7__cxx1112basic_stringIcSt11char_traitsIcESaIcEE6appendEPKcm.exit

24:                                               ; preds = %17
  tail call void @_ZSt20__throw_length_errorPKc(ptr noundef nonnull @.str.30) #26
  unreachable

_ZNSt7__cxx1112basic_stringIcSt11char_traitsIcESaIcEE6appendEPKcm.exit: ; preds = %17
  %25 = getelementptr inbounds nuw i8, ptr %0, i64 136
  %26 = load ptr, ptr %25, align 8, !tbaa !39
  %27 = sext i32 %13 to i64
  %28 = getelementptr inbounds i8, ptr %26, i64 %27
  %29 = tail call noundef nonnull align 8 dereferenceable(32) ptr @_ZNSt7__cxx1112basic_stringIcSt11char_traitsIcESaIcEE9_M_appendEPKcm(ptr noundef nonnull align 8 dereferenceable(32) %10, ptr noundef %28, i64 noundef %19)
  store i32 0, ptr %12, align 8, !tbaa !27
  br label %30

30:                                               ; preds = %_ZNSt7__cxx1112basic_stringIcSt11char_traitsIcESaIcEE6appendEPKcm.exit, %11, %8
  call void @llvm.lifetime.start.p0(i64 8, ptr nonnull %2) #24
  store ptr null, ptr %2, align 8, !tbaa !38
  %31 = getelementptr inbounds nuw i8, ptr %0, i64 136
  store ptr null, ptr %31, align 8, !tbaa !39
  %32 = getelementptr inbounds nuw i8, ptr %0, i64 148
  store i32 0, ptr %32, align 4, !tbaa !40
  %33 = getelementptr inbounds nuw i8, ptr %0, i64 112
  %34 = getelementptr inbounds nuw i8, ptr %0, i64 144
  br label %35

35:                                               ; preds = %42, %30
  %36 = load ptr, ptr %33, align 8, !tbaa !13
  %37 = load ptr, ptr %36, align 8, !tbaa !41
  %38 = getelementptr inbounds nuw i8, ptr %37, i64 16
  %39 = load ptr, ptr %38, align 8
  %40 = call noundef zeroext i1 %39(ptr noundef nonnull align 8 dereferenceable(8) %36, ptr noundef nonnull %2, ptr noundef nonnull %34)
  br i1 %40, label %42, label %41

41:                                               ; preds = %35
  store i32 0, ptr %34, align 8, !tbaa !43
  store i8 1, ptr %3, align 8, !tbaa !44
  br label %48

42:                                               ; preds = %35
  %43 = load i32, ptr %34, align 8, !tbaa !43
  %44 = icmp eq i32 %43, 0
  br i1 %44, label %35, label %45, !llvm.loop !45

45:                                               ; preds = %42
  %46 = load ptr, ptr %2, align 8, !tbaa !38
  store ptr %46, ptr %31, align 8, !tbaa !39
  %47 = load i8, ptr %46, align 1, !tbaa !12
  br label %48

48:                                               ; preds = %45, %41
  %.sink = phi i8 [ %47, %45 ], [ 0, %41 ]
  %49 = getelementptr inbounds nuw i8, ptr %0, i64 128
  store i8 %.sink, ptr %49, align 8, !tbaa !47
  call void @llvm.lifetime.end.p0(i64 8, ptr nonnull %2) #24
  br label %50

50:                                               ; preds = %48, %6
  ret void
}